; Function Attrs: nounwind uwtable
define hidden void @zim_Fiber_isStarted(ptr noundef readonly captures(none) %0, ptr noundef writeonly captures(none) %1) #7 {
  %3 = getelementptr inbounds nuw i8, ptr %0, i64 44
  %4 = load i32, ptr %3, align 4, !tbaa !56
  %.not = icmp eq i32 %4, 0
  br i1 %.not, label %6, label %5, !prof !73

5:                                                ; preds = %2
  tail call void @zend_wrong_parameters_none_error() #22
  br label %13

6:                                                ; preds = %2
  %7 = getelementptr inbounds nuw i8, ptr %0, i64 32
  %8 = load ptr, ptr %7, align 8, !tbaa !56
  %9 = getelementptr inbounds nuw i8, ptr %8, i64 104
  %10 = load i32, ptr %9, align 8, !tbaa !74
  %.not4 = icmp eq i32 %10, 0
  %11 = select i1 %.not4, i32 2, i32 3
  %12 = getelementptr inbounds nuw i8, ptr %1, i64 8
  store i32 %11, ptr %12, align 8, !tbaa !56
  br label %13

13:                                               ; preds = %6, %5
  ret void
}